; ModuleID = 'source-C-CXX/11/1246.cpp'
source_filename = "source-C-CXX/11/1246.cpp"
target datalayout = "e-m:e-p270:32:32-p271:32:32-p272:64:64-i64:64-f80:128-n8:16:32:64-S128"
target triple = "x86_64-pc-linux-gnu"

%"class.std::ios_base::Init" = type { i8 }
%"class.std::basic_istream" = type { i32 (...)**, i64, %"class.std::basic_ios" }
%"class.std::basic_ios" = type { %"class.std::ios_base", %"class.std::basic_ostream"*, i8, i8, %"class.std::basic_streambuf"*, %"class.std::ctype"*, %"class.std::num_put"*, %"class.std::num_get"* }
%"class.std::ios_base" = type { i32 (...)**, i64, i64, i32, i32, i32, %"struct.std::ios_base::_Callback_list"*, %"struct.std::ios_base::_Words", [8 x %"struct.std::ios_base::_Words"], i32, %"struct.std::ios_base::_Words"*, %"class.std::locale" }
%"struct.std::ios_base::_Callback_list" = type { %"struct.std::ios_base::_Callback_list"*, void (i32, %"class.std::ios_base"*, i32)*, i32, i32 }
%"struct.std::ios_base::_Words" = type { i8*, i64 }
%"class.std::locale" = type { %"class.std::locale::_Impl"* }
%"class.std::locale::_Impl" = type { i32, %"class.std::locale::facet"**, i64, %"class.std::locale::facet"**, i8** }
%"class.std::locale::facet" = type <{ i32 (...)**, i32, [4 x i8] }>
%"class.std::basic_ostream" = type { i32 (...)**, %"class.std::basic_ios" }
%"class.std::basic_streambuf" = type { i32 (...)**, i8*, i8*, i8*, i8*, i8*, i8*, %"class.std::locale" }
%"class.std::ctype" = type <{ %"class.std::locale::facet.base", [4 x i8], %struct.__locale_struct*, i8, [7 x i8], i32*, i32*, i16*, i8, [256 x i8], [256 x i8], i8, [6 x i8] }>
%"class.std::locale::facet.base" = type <{ i32 (...)**, i32 }>
%struct.__locale_struct = type { [13 x %struct.__locale_data*], i16*, i32*, i32*, [13 x i8*] }
%struct.__locale_data = type opaque
%"class.std::num_put" = type { %"class.std::locale::facet.base", [4 x i8] }
%"class.std::num_get" = type { %"class.std::locale::facet.base", [4 x i8] }

@_ZStL8__ioinit = internal global %"class.std::ios_base::Init" zeroinitializer, align 1
@__dso_handle = external hidden global i8
@_ZSt3cin = external global %"class.std::basic_istream", align 8
@_ZSt4cout = external global %"class.std::basic_ostream", align 8
@llvm.global_ctors = appending global [1 x { i32, void ()*, i8* }] [{ i32, void ()*, i8* } { i32 65535, void ()* @_GLOBAL__sub_I_1246.cpp, i8* null }]

declare void @_ZNSt8ios_base4InitC1Ev(%"class.std::ios_base::Init"* nonnull align 1 dereferenceable(1)) unnamed_addr #0

; Function Attrs: nounwind
declare void @_ZNSt8ios_base4InitD1Ev(%"class.std::ios_base::Init"* nonnull align 1 dereferenceable(1)) unnamed_addr #1

; Function Attrs: nofree nounwind
declare i32 @__cxa_atexit(void (i8*)*, i8*, i8*) local_unnamed_addr #2

; Function Attrs: mustprogress norecurse sspstrong uwtable
define dso_local i32 @main() local_unnamed_addr #3 {
  %1 = alloca i32, align 4
  %2 = alloca [15 x double], align 16
  %3 = bitcast i32* %1 to i8*
  call void @llvm.lifetime.start.p0i8(i64 4, i8* nonnull %3) #8
  %4 = bitcast [15 x double]* %2 to i8*
  call void @llvm.lifetime.start.p0i8(i64 120, i8* nonnull %4) #8
  %5 = call nonnull align 8 dereferenceable(16) %"class.std::basic_istream"* @_ZNSirsERi(%"class.std::basic_istream"* nonnull align 8 dereferenceable(16) @_ZSt3cin, i32* nonnull align 4 dereferenceable(4) %1)
  %6 = load i32, i32* %1, align 4, !tbaa !5
  %7 = icmp eq i32 %6, -1
  br i1 %7, label %136, label %8

8:                                                ; preds = %0, %129
  %9 = phi i32 [ %134, %129 ], [ %6, %0 ]
  %10 = icmp eq i32 %9, 0
  br i1 %10, label %101, label %16

11:                                               ; preds = %16
  %12 = trunc i64 %21 to i32
  %13 = icmp eq i32 %12, 0
  br i1 %13, label %101, label %14

14:                                               ; preds = %11
  %15 = and i64 %21, 4294967295
  br label %29

16:                                               ; preds = %8, %16
  %17 = phi i64 [ %21, %16 ], [ 0, %8 ]
  %18 = phi i32 [ %23, %16 ], [ %9, %8 ]
  %19 = sitofp i32 %18 to double
  %20 = getelementptr inbounds [15 x double], [15 x double]* %2, i64 0, i64 %17
  store double %19, double* %20, align 8, !tbaa !9
  %21 = add nuw i64 %17, 1
  %22 = call nonnull align 8 dereferenceable(16) %"class.std::basic_istream"* @_ZNSirsERi(%"class.std::basic_istream"* nonnull align 8 dereferenceable(16) @_ZSt3cin, i32* nonnull align 4 dereferenceable(4) %1)
  %23 = load i32, i32* %1, align 4, !tbaa !5
  %24 = icmp eq i32 %23, 0
  br i1 %24, label %11, label %16, !llvm.loop !11

25:                                               ; preds = %85, %76, %29
  %26 = phi i32 [ %32, %29 ], [ %78, %76 ], [ %98, %85 ]
  %27 = add nuw nsw i64 %31, 1
  %28 = icmp eq i64 %35, %15
  br i1 %28, label %101, label %29, !llvm.loop !13

29:                                               ; preds = %14, %25
  %30 = phi i64 [ 0, %14 ], [ %35, %25 ]
  %31 = phi i64 [ 1, %14 ], [ %27, %25 ]
  %32 = phi i32 [ 0, %14 ], [ %26, %25 ]
  %33 = xor i64 %30, -1
  %34 = add nsw i64 %15, %33
  %35 = add nuw nsw i64 %30, 1
  %36 = icmp ult i64 %35, %15
  br i1 %36, label %37, label %25

37:                                               ; preds = %29
  %38 = getelementptr inbounds [15 x double], [15 x double]* %2, i64 0, i64 %30
  %39 = load double, double* %38, align 8, !tbaa !9
  %40 = icmp ult i64 %34, 4
  br i1 %40, label %80, label %41

41:                                               ; preds = %37
  %42 = and i64 %34, -4
  %43 = add i64 %31, %42
  %44 = insertelement <2 x i32> <i32 poison, i32 0>, i32 %32, i32 0
  %45 = insertelement <2 x double> poison, double %39, i32 0
  %46 = shufflevector <2 x double> %45, <2 x double> poison, <2 x i32> zeroinitializer
  %47 = insertelement <2 x double> poison, double %39, i32 0
  %48 = shufflevector <2 x double> %47, <2 x double> poison, <2 x i32> zeroinitializer
  br label %49

49:                                               ; preds = %49, %41
  %50 = phi i64 [ 0, %41 ], [ %74, %49 ]
  %51 = phi <2 x i32> [ %44, %41 ], [ %72, %49 ]
  %52 = phi <2 x i32> [ zeroinitializer, %41 ], [ %73, %49 ]
  %53 = add i64 %31, %50
  %54 = getelementptr inbounds [15 x double], [15 x double]* %2, i64 0, i64 %53
  %55 = bitcast double* %54 to <2 x double>*
  %56 = load <2 x double>, <2 x double>* %55, align 8, !tbaa !9
  %57 = getelementptr inbounds double, double* %54, i64 2
  %58 = bitcast double* %57 to <2 x double>*
  %59 = load <2 x double>, <2 x double>* %58, align 8, !tbaa !9
  %60 = fdiv <2 x double> %56, %46
  %61 = fdiv <2 x double> %59, %48
  %62 = fcmp oeq <2 x double> %60, <double 2.000000e+00, double 2.000000e+00>
  %63 = fcmp oeq <2 x double> %61, <double 2.000000e+00, double 2.000000e+00>
  %64 = fdiv <2 x double> %46, %56
  %65 = fdiv <2 x double> %48, %59
  %66 = fcmp oeq <2 x double> %64, <double 2.000000e+00, double 2.000000e+00>
  %67 = fcmp oeq <2 x double> %65, <double 2.000000e+00, double 2.000000e+00>
  %68 = or <2 x i1> %62, %66
  %69 = or <2 x i1> %63, %67
  %70 = zext <2 x i1> %68 to <2 x i32>
  %71 = zext <2 x i1> %69 to <2 x i32>
  %72 = add <2 x i32> %51, %70
  %73 = add <2 x i32> %52, %71
  %74 = add nuw i64 %50, 4
  %75 = icmp eq i64 %74, %42
  br i1 %75, label %76, label %49, !llvm.loop !14

76:                                               ; preds = %49
  %77 = add <2 x i32> %73, %72
  %78 = call i32 @llvm.vector.reduce.add.v2i32(<2 x i32> %77)
  %79 = icmp eq i64 %34, %42
  br i1 %79, label %25, label %80

80:                                               ; preds = %37, %76
  %81 = phi i64 [ %31, %37 ], [ %43, %76 ]
  %82 = phi i32 [ %32, %37 ], [ %78, %76 ]
  %83 = insertelement <2 x double> poison, double %39, i32 1
  %84 = insertelement <2 x double> poison, double %39, i32 0
  br label %85

85:                                               ; preds = %80, %85
  %86 = phi i64 [ %99, %85 ], [ %81, %80 ]
  %87 = phi i32 [ %98, %85 ], [ %82, %80 ]
  %88 = getelementptr inbounds [15 x double], [15 x double]* %2, i64 0, i64 %86
  %89 = load double, double* %88, align 8, !tbaa !9
  %90 = insertelement <2 x double> %83, double %89, i32 0
  %91 = insertelement <2 x double> %84, double %89, i32 1
  %92 = fdiv <2 x double> %90, %91
  %93 = fcmp oeq <2 x double> %92, <double 2.000000e+00, double 2.000000e+00>
  %94 = shufflevector <2 x i1> %93, <2 x i1> poison, <2 x i32> <i32 1, i32 undef>
  %95 = or <2 x i1> %93, %94
  %96 = extractelement <2 x i1> %95, i32 0
  %97 = zext i1 %96 to i32
  %98 = add nsw i32 %87, %97
  %99 = add nuw nsw i64 %86, 1
  %100 = icmp eq i64 %99, %15
  br i1 %100, label %25, label %85, !llvm.loop !16

101:                                              ; preds = %25, %8, %11
  %102 = phi i32 [ 0, %11 ], [ 0, %8 ], [ %26, %25 ]
  %103 = call nonnull align 8 dereferenceable(8) %"class.std::basic_ostream"* @_ZNSolsEi(%"class.std::basic_ostream"* nonnull align 8 dereferenceable(8) @_ZSt4cout, i32 %102)
  %104 = bitcast %"class.std::basic_ostream"* %103 to i8**
  %105 = load i8*, i8** %104, align 8, !tbaa !18
  %106 = getelementptr i8, i8* %105, i64 -24
  %107 = bitcast i8* %106 to i64*
  %108 = load i64, i64* %107, align 8
  %109 = bitcast %"class.std::basic_ostream"* %103 to i8*
  %110 = add nsw i64 %108, 240
  %111 = getelementptr inbounds i8, i8* %109, i64 %110
  %112 = bitcast i8* %111 to %"class.std::ctype"**
  %113 = load %"class.std::ctype"*, %"class.std::ctype"** %112, align 8, !tbaa !20
  %114 = icmp eq %"class.std::ctype"* %113, null
  br i1 %114, label %115, label %116

115:                                              ; preds = %101
  call void @_ZSt16__throw_bad_castv() #9
  unreachable

116:                                              ; preds = %101
  %117 = getelementptr inbounds %"class.std::ctype", %"class.std::ctype"* %113, i64 0, i32 8
  %118 = load i8, i8* %117, align 8, !tbaa !24
  %119 = icmp eq i8 %118, 0
  br i1 %119, label %123, label %120

120:                                              ; preds = %116
  %121 = getelementptr inbounds %"class.std::ctype", %"class.std::ctype"* %113, i64 0, i32 9, i64 10
  %122 = load i8, i8* %121, align 1, !tbaa !26
  br label %129

123:                                              ; preds = %116
  call void @_ZNKSt5ctypeIcE13_M_widen_initEv(%"class.std::ctype"* nonnull align 8 dereferenceable(570) %113)
  %124 = bitcast %"class.std::ctype"* %113 to i8 (%"class.std::ctype"*, i8)***
  %125 = load i8 (%"class.std::ctype"*, i8)**, i8 (%"class.std::ctype"*, i8)*** %124, align 8, !tbaa !18
  %126 = getelementptr inbounds i8 (%"class.std::ctype"*, i8)*, i8 (%"class.std::ctype"*, i8)** %125, i64 6
  %127 = load i8 (%"class.std::ctype"*, i8)*, i8 (%"class.std::ctype"*, i8)** %126, align 8
  %128 = call signext i8 %127(%"class.std::ctype"* nonnull align 8 dereferenceable(570) %113, i8 signext 10)
  br label %129

129:                                              ; preds = %120, %123
  %130 = phi i8 [ %122, %120 ], [ %128, %123 ]
  %131 = call nonnull align 8 dereferenceable(8) %"class.std::basic_ostream"* @_ZNSo3putEc(%"class.std::basic_ostream"* nonnull align 8 dereferenceable(8) %103, i8 signext %130)
  %132 = call nonnull align 8 dereferenceable(8) %"class.std::basic_ostream"* @_ZNSo5flushEv(%"class.std::basic_ostream"* nonnull align 8 dereferenceable(8) %131)
  %133 = call nonnull align 8 dereferenceable(16) %"class.std::basic_istream"* @_ZNSirsERi(%"class.std::basic_istream"* nonnull align 8 dereferenceable(16) @_ZSt3cin, i32* nonnull align 4 dereferenceable(4) %1)
  %134 = load i32, i32* %1, align 4, !tbaa !5
  %135 = icmp eq i32 %134, -1
  br i1 %135, label %136, label %8, !llvm.loop !27

136:                                              ; preds = %129, %0
  %137 = call i32 @_ZNSi3getEv(%"class.std::basic_istream"* nonnull align 8 dereferenceable(16) @_ZSt3cin)
  %138 = call i32 @_ZNSi3getEv(%"class.std::basic_istream"* nonnull align 8 dereferenceable(16) @_ZSt3cin)
  call void @llvm.lifetime.end.p0i8(i64 120, i8* nonnull %4) #8
  call void @llvm.lifetime.end.p0i8(i64 4, i8* nonnull %3) #8
  ret i32 0
}

; Function Attrs: argmemonly mustprogress nofree nosync nounwind willreturn
declare void @llvm.lifetime.start.p0i8(i64 immarg, i8* nocapture) #4

declare nonnull align 8 dereferenceable(16) %"class.std::basic_istream"* @_ZNSirsERi(%"class.std::basic_istream"* nonnull align 8 dereferenceable(16), i32* nonnull align 4 dereferenceable(4)) local_unnamed_addr #0

declare nonnull align 8 dereferenceable(8) %"class.std::basic_ostream"* @_ZNSolsEi(%"class.std::basic_ostream"* nonnull align 8 dereferenceable(8), i32) local_unnamed_addr #0

declare i32 @_ZNSi3getEv(%"class.std::basic_istream"* nonnull align 8 dereferenceable(16)) local_unnamed_addr #0

; Function Attrs: argmemonly mustprogress nofree nosync nounwind willreturn
declare void @llvm.lifetime.end.p0i8(i64 immarg, i8* nocapture) #4

declare nonnull align 8 dereferenceable(8) %"class.std::basic_ostream"* @_ZNSo3putEc(%"class.std::basic_ostream"* nonnull align 8 dereferenceable(8), i8 signext) local_unnamed_addr #0

declare nonnull align 8 dereferenceable(8) %"class.std::basic_ostream"* @_ZNSo5flushEv(%"class.std::basic_ostream"* nonnull align 8 dereferenceable(8)) local_unnamed_addr #0

; Function Attrs: noreturn
declare void @_ZSt16__throw_bad_castv() local_unnamed_addr #5

declare void @_ZNKSt5ctypeIcE13_M_widen_initEv(%"class.std::ctype"* nonnull align 8 dereferenceable(570)) local_unnamed_addr #0

; Function Attrs: sspstrong uwtable
define internal void @_GLOBAL__sub_I_1246.cpp() #6 section ".text.startup" {
  tail call void @_ZNSt8ios_base4InitC1Ev(%"class.std::ios_base::Init"* nonnull align 1 dereferenceable(1) @_ZStL8__ioinit)
  %1 = tail call i32 @__cxa_atexit(void (i8*)* bitcast (void (%"class.std::ios_base::Init"*)* @_ZNSt8ios_base4InitD1Ev to void (i8*)*), i8* getelementptr inbounds (%"class.std::ios_base::Init", %"class.std::ios_base::Init"* @_ZStL8__ioinit, i64 0, i32 0), i8* nonnull @__dso_handle) #8
  ret void
}

; Function Attrs: nofree nosync nounwind readnone willreturn
declare i32 @llvm.vector.reduce.add.v2i32(<2 x i32>) #7


!llvm.module.flags = !{!0, !1, !2, !3}
!llvm.ident = !{!4}

!0 = !{i32 1, !"wchar_size", i32 4}
!1 = !{i32 7, !"PIC Level", i32 2}
!2 = !{i32 7, !"PIE Level", i32 2}
!3 = !{i32 7, !"uwtable", i32 1}
!4 = !{!"clang version 13.0.0"}
!5 = !{!6, !6, i64 0}
!6 = !{!"int", !7, i64 0}
!7 = !{!"omnipotent char", !8, i64 0}
!8 = !{!"Simple C++ TBAA"}
!9 = !{!10, !10, i64 0}
!10 = !{!"double", !7, i64 0}
!11 = distinct !{!11, !12}
!12 = !{!"llvm.loop.mustprogress"}
!13 = distinct !{!13, !12}
!14 = distinct !{!14, !12, !15}
!15 = !{!"llvm.loop.isvectorized", i32 1}
!16 = distinct !{!16, !12, !17, !15}
!17 = !{!"llvm.loop.unroll.runtime.disable"}
!18 = !{!19, !19, i64 0}
!19 = !{!"vtable pointer", !8, i64 0}
!20 = !{!21, !22, i64 240}
!21 = !{!"_ZTSSt9basic_iosIcSt11char_traitsIcEE", !22, i64 216, !7, i64 224, !23, i64 225, !22, i64 232, !22, i64 240, !22, i64 248, !22, i64 256}
!22 = !{!"any pointer", !7, i64 0}
!23 = !{!"bool", !7, i64 0}
!24 = !{!25, !7, i64 56}
!25 = !{!"_ZTSSt5ctypeIcE", !22, i64 16, !23, i64 24, !22, i64 32, !22, i64 40, !22, i64 48, !7, i64 56, !7, i64 57, !7, i64 313, !7, i64 569}
!26 = !{!7, !7, i64 0}
!27 = distinct !{!27, !12}
